; Function Attrs: mustprogress uwtable
define i32 @grpc_auth_context_peer_is_authenticated(ptr noundef %ctx) local_unnamed_addr #4 personality ptr @__gxx_personality_v0 {
entry:
  %0 = load atomic i8, ptr getelementptr inbounds (%"class.grpc_core::TraceFlag", ptr @grpc_api_trace, i64 0, i32 2, i32 0, i32 0) monotonic, align 8
  %1 = and i8 %0, 1
  %tobool.i.i.i.not = icmp eq i8 %1, 0
  br i1 %tobool.i.i.i.not, label %if.end, label %if.then

if.then:                                          ; preds = %entry
  tail call void (ptr, i32, i32, ptr, ...) @gpr_log(ptr noundef nonnull @.str, i32 noundef 168, i32 noundef 1, ptr noundef nonnull @.str.14, ptr noundef %ctx)
  br label %if.end

if.end:                                           ; preds = %if.then, %entry
  %peer_identity_property_name_.i = getelementptr inbounds i8, ptr %ctx, i64 40
  %2 = load ptr, ptr %peer_identity_property_name_.i, align 8
  %cmp.i = icmp ne ptr %2, null
  %conv = zext i1 %cmp.i to i32
  ret i32 %conv
}